; ModuleID = '7/395.c'
source_filename = "7/395.c"
target datalayout = "e-m:e-p270:32:32-p271:32:32-p272:64:64-i64:64-f80:128-n8:16:32:64-S128"
target triple = "x86_64-pc-linux-gnu"

@.str = private unnamed_addr constant [3 x i8] c"%s\00", align 1

; Function Attrs: noinline nounwind uwtable
define dso_local i32 @main() #0 {
  %1 = alloca i32, align 4
  %2 = alloca [256 x i8], align 16
  %3 = alloca [256 x i8], align 16
  %4 = alloca [256 x i8], align 16
  %5 = alloca [256 x i8], align 16
  %6 = alloca i32, align 4
  %7 = alloca i32, align 4
  %8 = alloca i32, align 4
  %9 = alloca i32, align 4
  %10 = alloca i32, align 4
  %11 = alloca i32, align 4
  %12 = alloca i32, align 4
  %13 = alloca i32, align 4
  %14 = alloca i32, align 4
  %15 = alloca i32, align 4
  store i32 0, i32* %1, align 4
  store i32 1, i32* %11, align 4
  store i32 0, i32* %12, align 4
  %16 = getelementptr inbounds [256 x i8], [256 x i8]* %2, i64 0, i64 0
  %17 = call i32 (i8*, ...) bitcast (i32 (...)* @gets to i32 (i8*, ...)*)(i8* %16)
  %18 = getelementptr inbounds [256 x i8], [256 x i8]* %3, i64 0, i64 0
  %19 = call i32 (i8*, ...) bitcast (i32 (...)* @gets to i32 (i8*, ...)*)(i8* %18)
  %20 = getelementptr inbounds [256 x i8], [256 x i8]* %4, i64 0, i64 0
  %21 = call i32 (i8*, ...) bitcast (i32 (...)* @gets to i32 (i8*, ...)*)(i8* %20)
  %22 = getelementptr inbounds [256 x i8], [256 x i8]* %2, i64 0, i64 0
  %23 = call i64 @strlen(i8* %22) #3
  %24 = trunc i64 %23 to i32
  store i32 %24, i32* %6, align 4
  %25 = getelementptr inbounds [256 x i8], [256 x i8]* %3, i64 0, i64 0
  %26 = call i64 @strlen(i8* %25) #3
  %27 = trunc i64 %26 to i32
  store i32 %27, i32* %7, align 4
  %28 = getelementptr inbounds [256 x i8], [256 x i8]* %4, i64 0, i64 0
  %29 = call i64 @strlen(i8* %28) #3
  %30 = trunc i64 %29 to i32
  store i32 %30, i32* %8, align 4
  store i32 0, i32* %9, align 4
  br label %31

31:                                               ; preds = %123, %0
  %32 = load i32, i32* %9, align 4
  %33 = load i32, i32* %6, align 4
  %34 = icmp slt i32 %32, %33
  br i1 %34, label %35, label %126

35:                                               ; preds = %31
  store i32 0, i32* %10, align 4
  br label %36

36:                                               ; preds = %56, %35
  %37 = load i32, i32* %10, align 4
  %38 = load i32, i32* %7, align 4
  %39 = icmp slt i32 %37, %38
  br i1 %39, label %40, label %59

40:                                               ; preds = %36
  %41 = load i32, i32* %10, align 4
  %42 = sext i32 %41 to i64
  %43 = getelementptr inbounds [256 x i8], [256 x i8]* %3, i64 0, i64 %42
  %44 = load i8, i8* %43, align 1
  %45 = sext i8 %44 to i32
  %46 = load i32, i32* %10, align 4
  %47 = load i32, i32* %9, align 4
  %48 = add nsw i32 %46, %47
  %49 = sext i32 %48 to i64
  %50 = getelementptr inbounds [256 x i8], [256 x i8]* %2, i64 0, i64 %49
  %51 = load i8, i8* %50, align 1
  %52 = sext i8 %51 to i32
  %53 = icmp ne i32 %45, %52
  br i1 %53, label %54, label %55

54:                                               ; preds = %40
  store i32 0, i32* %11, align 4
  br label %59

55:                                               ; preds = %40
  br label %56

56:                                               ; preds = %55
  %57 = load i32, i32* %10, align 4
  %58 = add nsw i32 %57, 1
  store i32 %58, i32* %10, align 4
  br label %36

59:                                               ; preds = %54, %36
  %60 = load i32, i32* %11, align 4
  %61 = icmp eq i32 %60, 1
  br i1 %61, label %62, label %122

62:                                               ; preds = %59
  store i32 0, i32* %13, align 4
  br label %63

63:                                               ; preds = %75, %62
  %64 = load i32, i32* %13, align 4
  %65 = load i32, i32* %9, align 4
  %66 = icmp slt i32 %64, %65
  br i1 %66, label %67, label %78

67:                                               ; preds = %63
  %68 = load i32, i32* %13, align 4
  %69 = sext i32 %68 to i64
  %70 = getelementptr inbounds [256 x i8], [256 x i8]* %2, i64 0, i64 %69
  %71 = load i8, i8* %70, align 1
  %72 = load i32, i32* %13, align 4
  %73 = sext i32 %72 to i64
  %74 = getelementptr inbounds [256 x i8], [256 x i8]* %5, i64 0, i64 %73
  store i8 %71, i8* %74, align 1
  br label %75

75:                                               ; preds = %67
  %76 = load i32, i32* %13, align 4
  %77 = add nsw i32 %76, 1
  store i32 %77, i32* %13, align 4
  br label %63

78:                                               ; preds = %63
  store i32 0, i32* %14, align 4
  %79 = load i32, i32* %9, align 4
  store i32 %79, i32* %13, align 4
  br label %80

80:                                               ; preds = %92, %78
  %81 = load i32, i32* %14, align 4
  %82 = load i32, i32* %8, align 4
  %83 = icmp slt i32 %81, %82
  br i1 %83, label %84, label %97

84:                                               ; preds = %80
  %85 = load i32, i32* %14, align 4
  %86 = sext i32 %85 to i64
  %87 = getelementptr inbounds [256 x i8], [256 x i8]* %4, i64 0, i64 %86
  %88 = load i8, i8* %87, align 1
  %89 = load i32, i32* %13, align 4
  %90 = sext i32 %89 to i64
  %91 = getelementptr inbounds [256 x i8], [256 x i8]* %5, i64 0, i64 %90
  store i8 %88, i8* %91, align 1
  br label %92

92:                                               ; preds = %84
  %93 = load i32, i32* %13, align 4
  %94 = add nsw i32 %93, 1
  store i32 %94, i32* %13, align 4
  %95 = load i32, i32* %14, align 4
  %96 = add nsw i32 %95, 1
  store i32 %96, i32* %14, align 4
  br label %80

97:                                               ; preds = %80
  %98 = load i32, i32* %9, align 4
  %99 = load i32, i32* %7, align 4
  %100 = add nsw i32 %98, %99
  store i32 %100, i32* %15, align 4
  br label %101

101:                                              ; preds = %113, %97
  %102 = load i32, i32* %15, align 4
  %103 = load i32, i32* %6, align 4
  %104 = icmp slt i32 %102, %103
  br i1 %104, label %105, label %118

105:                                              ; preds = %101
  %106 = load i32, i32* %15, align 4
  %107 = sext i32 %106 to i64
  %108 = getelementptr inbounds [256 x i8], [256 x i8]* %2, i64 0, i64 %107
  %109 = load i8, i8* %108, align 1
  %110 = load i32, i32* %13, align 4
  %111 = sext i32 %110 to i64
  %112 = getelementptr inbounds [256 x i8], [256 x i8]* %5, i64 0, i64 %111
  store i8 %109, i8* %112, align 1
  br label %113

113:                                              ; preds = %105
  %114 = load i32, i32* %15, align 4
  %115 = add nsw i32 %114, 1
  store i32 %115, i32* %15, align 4
  %116 = load i32, i32* %13, align 4
  %117 = add nsw i32 %116, 1
  store i32 %117, i32* %13, align 4
  br label %101

118:                                              ; preds = %101
  %119 = load i32, i32* %13, align 4
  %120 = sext i32 %119 to i64
  %121 = getelementptr inbounds [256 x i8], [256 x i8]* %5, i64 0, i64 %120
  store i8 0, i8* %121, align 1
  store i32 1, i32* %12, align 4
  br label %126

122:                                              ; preds = %59
  store i32 1, i32* %11, align 4
  br label %123

123:                                              ; preds = %122
  %124 = load i32, i32* %9, align 4
  %125 = add nsw i32 %124, 1
  store i32 %125, i32* %9, align 4
  br label %31

126:                                              ; preds = %118, %31
  %127 = load i32, i32* %12, align 4
  %128 = icmp eq i32 %127, 1
  br i1 %128, label %129, label %132

129:                                              ; preds = %126
  %130 = getelementptr inbounds [256 x i8], [256 x i8]* %5, i64 0, i64 0
  %131 = call i32 (i8*, ...) @printf(i8* getelementptr inbounds ([3 x i8], [3 x i8]* @.str, i64 0, i64 0), i8* %130)
  br label %132

132:                                              ; preds = %129, %126
  %133 = load i32, i32* %12, align 4
  %134 = icmp eq i32 %133, 0
  br i1 %134, label %135, label %138

135:                                              ; preds = %132
  %136 = getelementptr inbounds [256 x i8], [256 x i8]* %2, i64 0, i64 0
  %137 = call i32 (i8*, ...) @printf(i8* getelementptr inbounds ([3 x i8], [3 x i8]* @.str, i64 0, i64 0), i8* %136)
  br label %138

138:                                              ; preds = %135, %132
  ret i32 0
}

declare dso_local i32 @gets(...) #1

; Function Attrs: nounwind readonly
declare dso_local i64 @strlen(i8*) #2

declare dso_local i32 @printf(i8*, ...) #1


!llvm.module.flags = !{!0}
!llvm.ident = !{!1}

!0 = !{i32 1, !"wchar_size", i32 4}
!1 = !{!"clang version 10.0.0-4ubuntu1 "}
